target datalayout = "e-m:e-p270:32:32-p271:32:32-p272:64:64-i64:64-i128:128-f80:128-n8:16:32:64-S128"
target triple = "x86_64-unknown-linux-gnu"

%class.grobner = type <{ %struct.grobner_stats, ptr, ptr, %class.arith_util, %class.obj_map, %"struct.grobner::var_lt", %"struct.grobner::monomial_lt", %class.obj_hashtable, %class.obj_hashtable, %class.ptr_vector, %class.ptr_vector, i8, [7 x i8], ptr, %class.svector, %class.ptr_vector.3, %class.ptr_vector.3, %class.ptr_vector.5, %class.ptr_vector.5, i32, [4 x i8] }>
%struct.grobner_stats = type { i64, i64, i64, i64 }
%class.arith_util = type { ptr, ptr }
%class.obj_map = type { %class.core_hashtable }
%class.core_hashtable = type <{ ptr, i32, i32, i32, [4 x i8] }>
%"struct.grobner::var_lt" = type { ptr }
%"struct.grobner::monomial_lt" = type { ptr }
%class.obj_hashtable = type { %class.core_hashtable.base.1, [4 x i8] }
%class.core_hashtable.base.1 = type <{ ptr, i32, i32, i32 }>
%class.ptr_vector = type { %class.vector }
%class.vector = type { ptr }
%class.svector = type { %class.vector.2 }
%class.vector.2 = type { ptr }
%class.ptr_vector.3 = type { %class.vector.4 }
%class.vector.4 = type { ptr }
%class.ptr_vector.5 = type { %class.vector.6 }
%class.vector.6 = type { ptr }
%class.ast = type { i32, i24, i32, i32 }
%"union.std::aligned_storage<8, 8>::type" = type { [8 x i8] }
%class.app = type { %class.expr, ptr, i32, [0 x ptr] }
%class.expr = type { %class.ast }
%class.buffer.46 = type { ptr, i32, i32, [16 x %"union.std::aligned_storage<8, 8>::type"] }
%class.symbol = type { ptr }
%class.decl = type { %class.ast, %class.symbol, ptr }
%class.decl_info = type <{ i32, i32, %class.vector.47, i8, [7 x i8] }>
%class.vector.47 = type { ptr }

; Function Attrs: mustprogress nounwind uwtable
define linkonce_odr hidden noundef zeroext i1 @_ZNK9decl_info10is_decl_ofEii(ptr noundef nonnull align 8 dereferenceable(17) %this, i32 noundef %fid, i32 noundef %k) #5 comdat align 2 {
entry:
  %this.addr = alloca ptr, align 8
  %fid.addr = alloca i32, align 4
  %k.addr = alloca i32, align 4
  store ptr %this, ptr %this.addr, align 8
  store i32 %fid, ptr %fid.addr, align 4
  store i32 %k, ptr %k.addr, align 4
  %this1 = load ptr, ptr %this.addr, align 8
  %m_family_id = getelementptr inbounds %class.decl_info, ptr %this1, i32 0, i32 0
  %0 = load i32, ptr %m_family_id, align 8
  %1 = load i32, ptr %fid.addr, align 4
  %cmp = icmp eq i32 %0, %1
  br i1 %cmp, label %land.rhs, label %land.end

land.rhs:                                         ; preds = %entry
  %2 = load i32, ptr %k.addr, align 4
  %m_kind = getelementptr inbounds %class.decl_info, ptr %this1, i32 0, i32 1
  %3 = load i32, ptr %m_kind, align 4
  %cmp2 = icmp eq i32 %2, %3
  br label %land.end

land.end:                                         ; preds = %land.rhs, %entry
  %4 = phi i1 [ false, %entry ], [ %cmp2, %land.rhs ]
  ret i1 %4
}

; Function Attrs: mustprogress uwtable
define linkonce_odr hidden void @_Z13dealloc_svectIP4exprEvPT_(ptr noundef %ptr) #4 comdat {
entry:
  %ptr.addr = alloca ptr, align 8
  store ptr %ptr, ptr %ptr.addr, align 8
  %0 = load ptr, ptr %ptr.addr, align 8
  %cmp = icmp eq ptr %0, null
  br i1 %cmp, label %if.then, label %if.end

if.then:                                          ; preds = %entry
  br label %return

if.end:                                           ; preds = %entry
  %1 = load ptr, ptr %ptr.addr, align 8
  call void @_ZN6memory10deallocateEPv(ptr noundef %1)
  br label %return

return:                                           ; preds = %if.end, %if.then
  ret void
}

; Function Attrs: mustprogress uwtable
define linkonce_odr hidden noundef zeroext i1 @_ZNK4decl10is_decl_ofEii(ptr noundef nonnull align 8 dereferenceable(32) %this, i32 noundef %fid, i32 noundef %k) #4 comdat align 2 {
entry:
  %this.addr = alloca ptr, align 8
  %fid.addr = alloca i32, align 4
  %k.addr = alloca i32, align 4
  store ptr %this, ptr %this.addr, align 8
  store i32 %fid, ptr %fid.addr, align 4
  store i32 %k, ptr %k.addr, align 4
  %this1 = load ptr, ptr %this.addr, align 8
  %m_info = getelementptr inbounds %class.decl, ptr %this1, i32 0, i32 2
  %0 = load ptr, ptr %m_info, align 8
  %tobool = icmp ne ptr %0, null
  br i1 %tobool, label %land.rhs, label %land.end

land.rhs:                                         ; preds = %entry
  %m_info2 = getelementptr inbounds %class.decl, ptr %this1, i32 0, i32 2
  %1 = load ptr, ptr %m_info2, align 8
  %2 = load i32, ptr %fid.addr, align 4
  %3 = load i32, ptr %k.addr, align 4
  %call = call noundef zeroext i1 @_ZNK9decl_info10is_decl_ofEii(ptr noundef nonnull align 8 dereferenceable(17) %1, i32 noundef %2, i32 noundef %3)
  br label %land.end

land.end:                                         ; preds = %land.rhs, %entry
  %4 = phi i1 [ false, %entry ], [ %call, %land.rhs ]
  ret i1 %4
}

; Function Attrs: mustprogress uwtable
define linkonce_odr hidden void @_ZN6bufferIP4exprLb0ELj16EE11free_memoryEv(ptr noundef nonnull align 8 dereferenceable(144) %this) #4 comdat align 2 {
entry:
  %this.addr = alloca ptr, align 8
  store ptr %this, ptr %this.addr, align 8
  %this1 = load ptr, ptr %this.addr, align 8
  %m_buffer = getelementptr inbounds %class.buffer.46, ptr %this1, i32 0, i32 0
  %0 = load ptr, ptr %m_buffer, align 8
  %m_initial_buffer = getelementptr inbounds %class.buffer.46, ptr %this1, i32 0, i32 3
  %arraydecay = getelementptr inbounds [16 x %"union.std::aligned_storage<8, 8>::type"], ptr %m_initial_buffer, i64 0, i64 0
  %cmp = icmp ne ptr %0, %arraydecay
  br i1 %cmp, label %if.then, label %if.end

if.then:                                          ; preds = %entry
  %m_buffer2 = getelementptr inbounds %class.buffer.46, ptr %this1, i32 0, i32 0
  %1 = load ptr, ptr %m_buffer2, align 8
  call void @_Z13dealloc_svectIP4exprEvPT_(ptr noundef %1)
  br label %if.end

if.end:                                           ; preds = %if.then, %entry
  ret void
}

; Function Attrs: mustprogress uwtable
define linkonce_odr hidden noundef zeroext i1 @_ZNK3app9is_app_ofEii(ptr noundef nonnull align 8 dereferenceable(32) %this, i32 noundef %fid, i32 noundef %k) #4 comdat align 2 {
entry:
  %this.addr = alloca ptr, align 8
  %fid.addr = alloca i32, align 4
  %k.addr = alloca i32, align 4
  store ptr %this, ptr %this.addr, align 8
  store i32 %fid, ptr %fid.addr, align 4
  store i32 %k, ptr %k.addr, align 4
  %this1 = load ptr, ptr %this.addr, align 8
  %m_decl = getelementptr inbounds %class.app, ptr %this1, i32 0, i32 1
  %0 = load ptr, ptr %m_decl, align 8
  %1 = load i32, ptr %fid.addr, align 4
  %2 = load i32, ptr %k.addr, align 4
  %call = call noundef zeroext i1 @_ZNK4decl10is_decl_ofEii(ptr noundef nonnull align 8 dereferenceable(32) %0, i32 noundef %1, i32 noundef %2)
  ret i1 %call
}

; Function Attrs: mustprogress nounwind uwtable
define linkonce_odr hidden noundef ptr @_Z6to_appPK3ast(ptr noundef %n) #5 comdat {
entry:
  %n.addr = alloca ptr, align 8
  store ptr %n, ptr %n.addr, align 8
  %0 = load ptr, ptr %n.addr, align 8
  ret ptr %0
}

; Function Attrs: mustprogress nounwind uwtable
define linkonce_odr hidden noundef i32 @_ZNK3ast8get_kindEv(ptr noundef nonnull align 4 dereferenceable(16) %this) #5 comdat align 2 {
entry:
  %this.addr = alloca ptr, align 8
  store ptr %this, ptr %this.addr, align 8
  %this1 = load ptr, ptr %this.addr, align 8
  %m_kind = getelementptr inbounds %class.ast, ptr %this1, i32 0, i32 1
  %bf.load = load i32, ptr %m_kind, align 4
  %bf.clear = and i32 %bf.load, 65535
  ret i32 %bf.clear
}

; Function Attrs: mustprogress uwtable
define linkonce_odr hidden void @_ZN6bufferIP4exprLb0ELj16EE6expandEv(ptr noundef nonnull align 8 dereferenceable(144) %this) #4 comdat align 2 {
entry:
  %this.addr = alloca ptr, align 8
  %new_capacity = alloca i32, align 4
  %new_buffer = alloca ptr, align 8
  %i = alloca i32, align 4
  store ptr %this, ptr %this.addr, align 8
  %this1 = load ptr, ptr %this.addr, align 8
  %m_capacity = getelementptr inbounds %class.buffer.46, ptr %this1, i32 0, i32 2
  %0 = load i32, ptr %m_capacity, align 4
  %shl = shl i32 %0, 1
  store i32 %shl, ptr %new_capacity, align 4
  %1 = load i32, ptr %new_capacity, align 4
  %conv = zext i32 %1 to i64
  %mul = mul i64 8, %conv
  %call = call noalias noundef ptr @_ZN6memory8allocateEm(i64 noundef %mul)
  store ptr %call, ptr %new_buffer, align 8
  store i32 0, ptr %i, align 4
  br label %for.cond

for.cond:                                         ; preds = %for.inc, %entry
  %2 = load i32, ptr %i, align 4
  %m_pos = getelementptr inbounds %class.buffer.46, ptr %this1, i32 0, i32 1
  %3 = load i32, ptr %m_pos, align 8
  %cmp = icmp ult i32 %2, %3
  br i1 %cmp, label %for.body, label %for.end

for.body:                                         ; preds = %for.cond
  %4 = load ptr, ptr %new_buffer, align 8
  %5 = load i32, ptr %i, align 4
  %idxprom = zext i32 %5 to i64
  %arrayidx = getelementptr inbounds ptr, ptr %4, i64 %idxprom
  %m_buffer = getelementptr inbounds %class.buffer.46, ptr %this1, i32 0, i32 0
  %6 = load ptr, ptr %m_buffer, align 8
  %7 = load i32, ptr %i, align 4
  %idxprom2 = zext i32 %7 to i64
  %arrayidx3 = getelementptr inbounds ptr, ptr %6, i64 %idxprom2
  %8 = load ptr, ptr %arrayidx3, align 8
  store ptr %8, ptr %arrayidx, align 8
  br label %for.inc

for.inc:                                          ; preds = %for.body
  %9 = load i32, ptr %i, align 4
  %inc = add i32 %9, 1
  store i32 %inc, ptr %i, align 4
  br label %for.cond, !llvm.loop !87

for.end:                                          ; preds = %for.cond
  call void @_ZN6bufferIP4exprLb0ELj16EE11free_memoryEv(ptr noundef nonnull align 8 dereferenceable(144) %this1)
  %10 = load ptr, ptr %new_buffer, align 8
  %m_buffer4 = getelementptr inbounds %class.buffer.46, ptr %this1, i32 0, i32 0
  store ptr %10, ptr %m_buffer4, align 8
  %11 = load i32, ptr %new_capacity, align 4
  %m_capacity5 = getelementptr inbounds %class.buffer.46, ptr %this1, i32 0, i32 2
  store i32 %11, ptr %m_capacity5, align 4
  ret void
}

; Function Attrs: mustprogress uwtable
define linkonce_odr hidden noundef zeroext i1 @_Z9is_app_ofPK4exprii(ptr noundef %n, i32 noundef %fid, i32 noundef %k) #4 comdat {
entry:
  %n.addr = alloca ptr, align 8
  %fid.addr = alloca i32, align 4
  %k.addr = alloca i32, align 4
  store ptr %n, ptr %n.addr, align 8
  store i32 %fid, ptr %fid.addr, align 4
  store i32 %k, ptr %k.addr, align 4
  %0 = load ptr, ptr %n.addr, align 8
  %call = call noundef i32 @_ZNK3ast8get_kindEv(ptr noundef nonnull align 4 dereferenceable(16) %0)
  %cmp = icmp eq i32 %call, 0
  br i1 %cmp, label %land.rhs, label %land.end

land.rhs:                                         ; preds = %entry
  %1 = load ptr, ptr %n.addr, align 8
  %call1 = call noundef ptr @_Z6to_appPK3ast(ptr noundef %1)
  %2 = load i32, ptr %fid.addr, align 4
  %3 = load i32, ptr %k.addr, align 4
  %call2 = call noundef zeroext i1 @_ZNK3app9is_app_ofEii(ptr noundef nonnull align 8 dereferenceable(32) %call1, i32 noundef %2, i32 noundef %3)
  br label %land.end

land.end:                                         ; preds = %land.rhs, %entry
  %4 = phi i1 [ false, %entry ], [ %call2, %land.rhs ]
  ret i1 %4
}

; Function Attrs: mustprogress uwtable
define linkonce_odr hidden void @_ZN6bufferIP4exprLb0ELj16EE9push_backERKS1_(ptr noundef nonnull align 8 dereferenceable(144) %this, ptr noundef nonnull align 8 dereferenceable(8) %elem) #4 comdat align 2 {
entry:
  %this.addr = alloca ptr, align 8
  %elem.addr = alloca ptr, align 8
  store ptr %this, ptr %this.addr, align 8
  store ptr %elem, ptr %elem.addr, align 8
  %this1 = load ptr, ptr %this.addr, align 8
  %m_pos = getelementptr inbounds %class.buffer.46, ptr %this1, i32 0, i32 1
  %0 = load i32, ptr %m_pos, align 8
  %m_capacity = getelementptr inbounds %class.buffer.46, ptr %this1, i32 0, i32 2
  %1 = load i32, ptr %m_capacity, align 4
  %cmp = icmp uge i32 %0, %1
  br i1 %cmp, label %if.then, label %if.end

if.then:                                          ; preds = %entry
  call void @_ZN6bufferIP4exprLb0ELj16EE6expandEv(ptr noundef nonnull align 8 dereferenceable(144) %this1)
  br label %if.end

if.end:                                           ; preds = %if.then, %entry
  %m_buffer = getelementptr inbounds %class.buffer.46, ptr %this1, i32 0, i32 0
  %2 = load ptr, ptr %m_buffer, align 8
  %m_pos2 = getelementptr inbounds %class.buffer.46, ptr %this1, i32 0, i32 1
  %3 = load i32, ptr %m_pos2, align 8
  %idx.ext = zext i32 %3 to i64
  %add.ptr = getelementptr inbounds ptr, ptr %2, i64 %idx.ext
  %4 = load ptr, ptr %elem.addr, align 8
  %5 = load ptr, ptr %4, align 8
  store ptr %5, ptr %add.ptr, align 8
  %m_pos3 = getelementptr inbounds %class.buffer.46, ptr %this1, i32 0, i32 1
  %6 = load i32, ptr %m_pos3, align 8
  %inc = add i32 %6, 1
  store i32 %inc, ptr %m_pos3, align 8
  ret void
}

; Function Attrs: mustprogress uwtable
define linkonce_odr hidden void @_ZN6bufferIP4exprLb0ELj16EE9push_backEOS1_(ptr noundef nonnull align 8 dereferenceable(144) %this, ptr noundef nonnull align 8 dereferenceable(8) %elem) #4 comdat align 2 {
entry:
  %this.addr = alloca ptr, align 8
  %elem.addr = alloca ptr, align 8
  store ptr %this, ptr %this.addr, align 8
  store ptr %elem, ptr %elem.addr, align 8
  %this1 = load ptr, ptr %this.addr, align 8
  %m_pos = getelementptr inbounds %class.buffer.46, ptr %this1, i32 0, i32 1
  %0 = load i32, ptr %m_pos, align 8
  %m_capacity = getelementptr inbounds %class.buffer.46, ptr %this1, i32 0, i32 2
  %1 = load i32, ptr %m_capacity, align 4
  %cmp = icmp uge i32 %0, %1
  br i1 %cmp, label %if.then, label %if.end

if.then:                                          ; preds = %entry
  call void @_ZN6bufferIP4exprLb0ELj16EE6expandEv(ptr noundef nonnull align 8 dereferenceable(144) %this1)
  br label %if.end

if.end:                                           ; preds = %if.then, %entry
  %m_buffer = getelementptr inbounds %class.buffer.46, ptr %this1, i32 0, i32 0
  %2 = load ptr, ptr %m_buffer, align 8
  %m_pos2 = getelementptr inbounds %class.buffer.46, ptr %this1, i32 0, i32 1
  %3 = load i32, ptr %m_pos2, align 8
  %idx.ext = zext i32 %3 to i64
  %add.ptr = getelementptr inbounds ptr, ptr %2, i64 %idx.ext
  %4 = load ptr, ptr %elem.addr, align 8
  %5 = load ptr, ptr %4, align 8
  store ptr %5, ptr %add.ptr, align 8
  %m_pos3 = getelementptr inbounds %class.buffer.46, ptr %this1, i32 0, i32 1
  %6 = load i32, ptr %m_pos3, align 8
  %inc = add i32 %6, 1
  store i32 %inc, ptr %m_pos3, align 8
  ret void
}

; Function Attrs: mustprogress nounwind uwtable
define linkonce_odr hidden noundef ptr @_ZNK3app7get_argEj(ptr noundef nonnull align 8 dereferenceable(32) %this, i32 noundef %idx) #5 comdat align 2 {
entry:
  %this.addr = alloca ptr, align 8
  %idx.addr = alloca i32, align 4
  store ptr %this, ptr %this.addr, align 8
  store i32 %idx, ptr %idx.addr, align 4
  %this1 = load ptr, ptr %this.addr, align 8
  %m_args = getelementptr inbounds %class.app, ptr %this1, i32 0, i32 3
  %0 = load i32, ptr %idx.addr, align 4
  %idxprom = zext i32 %0 to i64
  %arrayidx = getelementptr inbounds [0 x ptr], ptr %m_args, i64 0, i64 %idxprom
  %1 = load ptr, ptr %arrayidx, align 8
  ret ptr %1
}

; Function Attrs: mustprogress nounwind uwtable
define linkonce_odr hidden noundef ptr @_Z6to_appP3ast(ptr noundef %n) #5 comdat {
entry:
  %n.addr = alloca ptr, align 8
  store ptr %n, ptr %n.addr, align 8
  %0 = load ptr, ptr %n.addr, align 8
  ret ptr %0
}

; Function Attrs: mustprogress uwtable
define linkonce_odr hidden noundef zeroext i1 @_ZNK17arith_recognizers6is_addEPK4expr(ptr noundef nonnull align 1 dereferenceable(1) %this, ptr noundef %n) #4 comdat align 2 {
entry:
  %this.addr = alloca ptr, align 8
  %n.addr = alloca ptr, align 8
  store ptr %this, ptr %this.addr, align 8
  store ptr %n, ptr %n.addr, align 8
  %0 = load ptr, ptr %n.addr, align 8
  %call = call noundef zeroext i1 @_Z9is_app_ofPK4exprii(ptr noundef %0, i32 noundef 5, i32 noundef 6)
  ret i1 %call
}

; Function Attrs: mustprogress uwtable
define hidden void @_ZN7grobner17extract_monomialsEP4exprR10ptr_bufferIS0_Lj16EE(ptr noundef nonnull align 8 dereferenceable(228) %this, ptr noundef %lhs, ptr noundef nonnull align 8 dereferenceable(144) %monomials) #4 align 2 {
entry:
  %this.addr = alloca ptr, align 8
  %lhs.addr = alloca ptr, align 8
  %monomials.addr = alloca ptr, align 8
  %ref.tmp = alloca ptr, align 8
  store ptr %this, ptr %this.addr, align 8
  store ptr %lhs, ptr %lhs.addr, align 8
  store ptr %monomials, ptr %monomials.addr, align 8
  %this1 = load ptr, ptr %this.addr, align 8
  br label %while.cond

while.cond:                                       ; preds = %while.body, %entry
  %m_util = getelementptr inbounds %class.grobner, ptr %this1, i32 0, i32 3
  %0 = load ptr, ptr %lhs.addr, align 8
  %call = call noundef zeroext i1 @_ZNK17arith_recognizers6is_addEPK4expr(ptr noundef nonnull align 1 dereferenceable(1) %m_util, ptr noundef %0)
  br i1 %call, label %while.body, label %while.end

while.body:                                       ; preds = %while.cond
  %1 = load ptr, ptr %monomials.addr, align 8
  %2 = load ptr, ptr %lhs.addr, align 8
  %call2 = call noundef ptr @_Z6to_appP3ast(ptr noundef %2)
  %call3 = call noundef ptr @_ZNK3app7get_argEj(ptr noundef nonnull align 8 dereferenceable(32) %call2, i32 noundef 0)
  store ptr %call3, ptr %ref.tmp, align 8
  call void @_ZN6bufferIP4exprLb0ELj16EE9push_backEOS1_(ptr noundef nonnull align 8 dereferenceable(144) %1, ptr noundef nonnull align 8 dereferenceable(8) %ref.tmp)
  %3 = load ptr, ptr %lhs.addr, align 8
  %call4 = call noundef ptr @_Z6to_appP3ast(ptr noundef %3)
  %call5 = call noundef ptr @_ZNK3app7get_argEj(ptr noundef nonnull align 8 dereferenceable(32) %call4, i32 noundef 1)
  store ptr %call5, ptr %lhs.addr, align 8
  br label %while.cond, !llvm.loop !20

while.end:                                        ; preds = %while.cond
  %4 = load ptr, ptr %monomials.addr, align 8
  call void @_ZN6bufferIP4exprLb0ELj16EE9push_backERKS1_(ptr noundef nonnull align 8 dereferenceable(144) %4, ptr noundef nonnull align 8 dereferenceable(8) %lhs.addr)
  ret void
}