; Function Attrs: mustprogress uwtable
define hidden void @_ZN7grobner17extract_monomialsEP4exprR10ptr_bufferIS0_Lj16EE(ptr nocapture nonnull readnone align 8 %this, ptr noundef %lhs, ptr noundef nonnull align 8 dereferenceable(144) %monomials) local_unnamed_addr #3 align 2 {
entry:
  %m_kind.i.i.i37 = getelementptr inbounds i8, ptr %lhs, i64 4
  %bf.load.i.i.i38 = load i32, ptr %m_kind.i.i.i37, align 4
  %bf.clear.i.i.i39 = and i32 %bf.load.i.i.i38, 65535
  %cmp.i.i40 = icmp eq i32 %bf.clear.i.i.i39, 0
  br i1 %cmp.i.i40, label %land.rhs.i.i.lr.ph, label %while.end

land.rhs.i.i.lr.ph:                               ; preds = %entry
  %m_pos.i = getelementptr inbounds i8, ptr %monomials, i64 8
  %m_capacity.i = getelementptr inbounds i8, ptr %monomials, i64 12
  %m_initial_buffer.i.i.i = getelementptr inbounds i8, ptr %monomials, i64 16
  br label %land.rhs.i.i

land.rhs.i.i:                                     ; preds = %land.rhs.i.i.lr.ph, %_ZN6bufferIP4exprLb0ELj16EE9push_backEOS1_.exit
  %storemerge41 = phi ptr [ %lhs, %land.rhs.i.i.lr.ph ], [ %13, %_ZN6bufferIP4exprLb0ELj16EE9push_backEOS1_.exit ]
  %m_decl.i.i.i = getelementptr inbounds i8, ptr %storemerge41, i64 16
  %0 = load ptr, ptr %m_decl.i.i.i, align 8
  %m_info.i.i.i.i = getelementptr inbounds i8, ptr %0, i64 24
  %1 = load ptr, ptr %m_info.i.i.i.i, align 8
  %tobool.not.i.i.i.i = icmp eq ptr %1, null
  br i1 %tobool.not.i.i.i.i, label %while.end, label %_ZNK17arith_recognizers6is_addEPK4expr.exit

_ZNK17arith_recognizers6is_addEPK4expr.exit:      ; preds = %land.rhs.i.i
  %2 = load i32, ptr %1, align 8
  %cmp.i.i.i.i.i = icmp eq i32 %2, 5
  %m_kind.i.i.i.i.i = getelementptr inbounds i8, ptr %1, i64 4
  %3 = load i32, ptr %m_kind.i.i.i.i.i, align 4
  %cmp2.i.i.i.i.i = icmp eq i32 %3, 6
  %4 = select i1 %cmp.i.i.i.i.i, i1 %cmp2.i.i.i.i.i, i1 false
  br i1 %4, label %while.body, label %while.end

while.body:                                       ; preds = %_ZNK17arith_recognizers6is_addEPK4expr.exit
  %m_args.i = getelementptr inbounds i8, ptr %storemerge41, i64 32
  %5 = load ptr, ptr %m_args.i, align 8
  %6 = load i32, ptr %m_pos.i, align 8
  %7 = load i32, ptr %m_capacity.i, align 4
  %cmp.not.i = icmp ult i32 %6, %7
  br i1 %cmp.not.i, label %entry.if.end_crit_edge.i, label %if.then.i

entry.if.end_crit_edge.i:                         ; preds = %while.body
  %.pre.i = load ptr, ptr %monomials, align 8
  br label %_ZN6bufferIP4exprLb0ELj16EE9push_backEOS1_.exit

if.then.i:                                        ; preds = %while.body
  %shl.i.i = shl i32 %7, 1
  %conv.i.i = zext i32 %shl.i.i to i64
  %mul.i.i = shl nuw nsw i64 %conv.i.i, 3
  %call.i.i = tail call noalias noundef ptr @_ZN6memory8allocateEm(i64 noundef %mul.i.i)
  %8 = load i32, ptr %m_pos.i, align 8
  %cmp6.not.i.i = icmp eq i32 %8, 0
  %.pre.i.i = load ptr, ptr %monomials, align 8
  br i1 %cmp6.not.i.i, label %for.end.i.i, label %for.body.lr.ph.i.i

for.body.lr.ph.i.i:                               ; preds = %if.then.i
  %wide.trip.count.i.i = zext i32 %8 to i64
  br label %for.body.i.i

for.body.i.i:                                     ; preds = %for.body.i.i, %for.body.lr.ph.i.i
  %indvars.iv.i.i = phi i64 [ 0, %for.body.lr.ph.i.i ], [ %indvars.iv.next.i.i, %for.body.i.i ]
  %arrayidx.i.i = getelementptr inbounds ptr, ptr %call.i.i, i64 %indvars.iv.i.i
  %arrayidx3.i.i = getelementptr inbounds ptr, ptr %.pre.i.i, i64 %indvars.iv.i.i
  %9 = load ptr, ptr %arrayidx3.i.i, align 8
  store ptr %9, ptr %arrayidx.i.i, align 8
  %indvars.iv.next.i.i = add nuw nsw i64 %indvars.iv.i.i, 1
  %exitcond.not.i.i = icmp eq i64 %indvars.iv.next.i.i, %wide.trip.count.i.i
  br i1 %exitcond.not.i.i, label %for.end.i.i, label %for.body.i.i, !llvm.loop !30

for.end.i.i:                                      ; preds = %for.body.i.i, %if.then.i
  %cmp.not.i.i.i = icmp eq ptr %.pre.i.i, %m_initial_buffer.i.i.i
  %cmp.i.i.i.i = icmp eq ptr %.pre.i.i, null
  %or.cond.i.i.i = or i1 %cmp.not.i.i.i, %cmp.i.i.i.i
  br i1 %or.cond.i.i.i, label %_ZN6bufferIP4exprLb0ELj16EE6expandEv.exit.i, label %if.end.i.i.i.i

if.end.i.i.i.i:                                   ; preds = %for.end.i.i
  tail call void @_ZN6memory10deallocateEPv(ptr noundef nonnull %.pre.i.i)
  %.pre1.pre.i = load i32, ptr %m_pos.i, align 8
  br label %_ZN6bufferIP4exprLb0ELj16EE6expandEv.exit.i

_ZN6bufferIP4exprLb0ELj16EE6expandEv.exit.i:      ; preds = %if.end.i.i.i.i, %for.end.i.i
  %.pre1.i = phi i32 [ %8, %for.end.i.i ], [ %.pre1.pre.i, %if.end.i.i.i.i ]
  store ptr %call.i.i, ptr %monomials, align 8
  store i32 %shl.i.i, ptr %m_capacity.i, align 4
  br label %_ZN6bufferIP4exprLb0ELj16EE9push_backEOS1_.exit

_ZN6bufferIP4exprLb0ELj16EE9push_backEOS1_.exit:  ; preds = %entry.if.end_crit_edge.i, %_ZN6bufferIP4exprLb0ELj16EE6expandEv.exit.i
  %10 = phi i32 [ %6, %entry.if.end_crit_edge.i ], [ %.pre1.i, %_ZN6bufferIP4exprLb0ELj16EE6expandEv.exit.i ]
  %11 = phi ptr [ %.pre.i, %entry.if.end_crit_edge.i ], [ %call.i.i, %_ZN6bufferIP4exprLb0ELj16EE6expandEv.exit.i ]
  %idx.ext.i = zext i32 %10 to i64
  %add.ptr.i = getelementptr inbounds ptr, ptr %11, i64 %idx.ext.i
  store ptr %5, ptr %add.ptr.i, align 8
  %12 = load i32, ptr %m_pos.i, align 8
  %inc.i = add i32 %12, 1
  store i32 %inc.i, ptr %m_pos.i, align 8
  %arrayidx.i = getelementptr inbounds i8, ptr %storemerge41, i64 40
  %13 = load ptr, ptr %arrayidx.i, align 8
  %m_kind.i.i.i = getelementptr inbounds i8, ptr %13, i64 4
  %bf.load.i.i.i = load i32, ptr %m_kind.i.i.i, align 4
  %bf.clear.i.i.i = and i32 %bf.load.i.i.i, 65535
  %cmp.i.i = icmp eq i32 %bf.clear.i.i.i, 0
  br i1 %cmp.i.i, label %land.rhs.i.i, label %while.end, !llvm.loop !31

while.end:                                        ; preds = %_ZNK17arith_recognizers6is_addEPK4expr.exit, %_ZN6bufferIP4exprLb0ELj16EE9push_backEOS1_.exit, %land.rhs.i.i, %entry
  %storemerge.lcssa = phi ptr [ %lhs, %entry ], [ %storemerge41, %land.rhs.i.i ], [ %13, %_ZN6bufferIP4exprLb0ELj16EE9push_backEOS1_.exit ], [ %storemerge41, %_ZNK17arith_recognizers6is_addEPK4expr.exit ]
  %m_pos.i3 = getelementptr inbounds i8, ptr %monomials, i64 8
  %14 = load i32, ptr %m_pos.i3, align 8
  %m_capacity.i4 = getelementptr inbounds i8, ptr %monomials, i64 12
  %15 = load i32, ptr %m_capacity.i4, align 4
  %cmp.not.i5 = icmp ult i32 %14, %15
  br i1 %cmp.not.i5, label %entry.if.end_crit_edge.i33, label %if.then.i6

entry.if.end_crit_edge.i33:                       ; preds = %while.end
  %.pre.i34 = load ptr, ptr %monomials, align 8
  br label %_ZN6bufferIP4exprLb0ELj16EE9push_backERKS1_.exit

if.then.i6:                                       ; preds = %while.end
  %shl.i.i7 = shl i32 %15, 1
  %conv.i.i8 = zext i32 %shl.i.i7 to i64
  %mul.i.i9 = shl nuw nsw i64 %conv.i.i8, 3
  %call.i.i10 = tail call noalias noundef ptr @_ZN6memory8allocateEm(i64 noundef %mul.i.i9)
  %16 = load i32, ptr %m_pos.i3, align 8
  %cmp6.not.i.i11 = icmp eq i32 %16, 0
  %.pre.i.i12 = load ptr, ptr %monomials, align 8
  br i1 %cmp6.not.i.i11, label %for.end.i.i21, label %for.body.lr.ph.i.i13

for.body.lr.ph.i.i13:                             ; preds = %if.then.i6
  %wide.trip.count.i.i14 = zext i32 %16 to i64
  br label %for.body.i.i15

for.body.i.i15:                                   ; preds = %for.body.i.i15, %for.body.lr.ph.i.i13
  %indvars.iv.i.i16 = phi i64 [ 0, %for.body.lr.ph.i.i13 ], [ %indvars.iv.next.i.i19, %for.body.i.i15 ]
  %arrayidx.i.i17 = getelementptr inbounds ptr, ptr %call.i.i10, i64 %indvars.iv.i.i16
  %arrayidx3.i.i18 = getelementptr inbounds ptr, ptr %.pre.i.i12, i64 %indvars.iv.i.i16
  %17 = load ptr, ptr %arrayidx3.i.i18, align 8
  store ptr %17, ptr %arrayidx.i.i17, align 8
  %indvars.iv.next.i.i19 = add nuw nsw i64 %indvars.iv.i.i16, 1
  %exitcond.not.i.i20 = icmp eq i64 %indvars.iv.next.i.i19, %wide.trip.count.i.i14
  br i1 %exitcond.not.i.i20, label %for.end.i.i21, label %for.body.i.i15, !llvm.loop !30

for.end.i.i21:                                    ; preds = %for.body.i.i15, %if.then.i6
  %m_initial_buffer.i.i.i22 = getelementptr inbounds i8, ptr %monomials, i64 16
  %cmp.not.i.i.i23 = icmp eq ptr %.pre.i.i12, %m_initial_buffer.i.i.i22
  %cmp.i.i.i.i24 = icmp eq ptr %.pre.i.i12, null
  %or.cond.i.i.i25 = or i1 %cmp.not.i.i.i23, %cmp.i.i.i.i24
  br i1 %or.cond.i.i.i25, label %_ZN6bufferIP4exprLb0ELj16EE6expandEv.exit.i28, label %if.end.i.i.i.i26

if.end.i.i.i.i26:                                 ; preds = %for.end.i.i21
  tail call void @_ZN6memory10deallocateEPv(ptr noundef nonnull %.pre.i.i12)
  %.pre1.pre.i27 = load i32, ptr %m_pos.i3, align 8
  br label %_ZN6bufferIP4exprLb0ELj16EE6expandEv.exit.i28

_ZN6bufferIP4exprLb0ELj16EE6expandEv.exit.i28:    ; preds = %if.end.i.i.i.i26, %for.end.i.i21
  %.pre1.i29 = phi i32 [ %16, %for.end.i.i21 ], [ %.pre1.pre.i27, %if.end.i.i.i.i26 ]
  store ptr %call.i.i10, ptr %monomials, align 8
  store i32 %shl.i.i7, ptr %m_capacity.i4, align 4
  br label %_ZN6bufferIP4exprLb0ELj16EE9push_backERKS1_.exit

_ZN6bufferIP4exprLb0ELj16EE9push_backERKS1_.exit: ; preds = %entry.if.end_crit_edge.i33, %_ZN6bufferIP4exprLb0ELj16EE6expandEv.exit.i28
  %18 = phi i32 [ %14, %entry.if.end_crit_edge.i33 ], [ %.pre1.i29, %_ZN6bufferIP4exprLb0ELj16EE6expandEv.exit.i28 ]
  %19 = phi ptr [ %.pre.i34, %entry.if.end_crit_edge.i33 ], [ %call.i.i10, %_ZN6bufferIP4exprLb0ELj16EE6expandEv.exit.i28 ]
  %idx.ext.i30 = zext i32 %18 to i64
  %add.ptr.i31 = getelementptr inbounds ptr, ptr %19, i64 %idx.ext.i30
  store ptr %storemerge.lcssa, ptr %add.ptr.i31, align 8
  %20 = load i32, ptr %m_pos.i3, align 8
  %inc.i32 = add i32 %20, 1
  store i32 %inc.i32, ptr %m_pos.i3, align 8
  ret void
}